---
triple:          'arm64-apple-darwin'
binary-path:     '/Users/christopherhanly/school/sam/main'
relocations:
  - { offsetInCU: 0x26, offset: 0x26, size: 0x8, addend: 0x0, symName: __ZN7ProcessC2Eiff, symObjAddr: 0x0, symBinAddr: 0x100001978, symSize: 0x38 }
  - { offsetInCU: 0xA2, offset: 0xA2, size: 0x8, addend: 0x0, symName: __ZN7ProcessC2Eiff, symObjAddr: 0x0, symBinAddr: 0x100001978, symSize: 0x38 }
  - { offsetInCU: 0xF6, offset: 0xF6, size: 0x8, addend: 0x0, symName: __ZN7ProcessC1Eiff, symObjAddr: 0x38, symBinAddr: 0x1000019B0, symSize: 0x44 }
  - { offsetInCU: 0x14A, offset: 0x14A, size: 0x8, addend: 0x0, symName: __ZN7ProcessC2Ev, symObjAddr: 0x7C, symBinAddr: 0x1000019F4, symSize: 0x24 }
  - { offsetInCU: 0x173, offset: 0x173, size: 0x8, addend: 0x0, symName: __ZN7ProcessC1Ev, symObjAddr: 0xA0, symBinAddr: 0x100001A18, symSize: 0x2C }
  - { offsetInCU: 0x314D, offset: 0x32EE, size: 0x8, addend: 0x0, symName: __ZNSt3__124__put_character_sequenceB8ue170006IcNS_11char_traitsIcEEEERNS_13basic_ostreamIT_T0_EES7_PKS4_m, symObjAddr: 0xEC4, symBinAddr: 0x100002908, symSize: 0x1F4 }
  - { offsetInCU: 0x4A9A, offset: 0x4C3B, size: 0x8, addend: 0x0, symName: __ZNSt3__1lsB8ue170006INS_11char_traitsIcEEEERNS_13basic_ostreamIcT_EES6_PKc, symObjAddr: 0xC8, symBinAddr: 0x100001B0C, symSize: 0x48 }
  - { offsetInCU: 0x4AE0, offset: 0x4C81, size: 0x8, addend: 0x0, symName: __ZNSt3__14endlB8ue170006IcNS_11char_traitsIcEEEERNS_13basic_ostreamIT_T0_EES7_, symObjAddr: 0x13C, symBinAddr: 0x100001B80, symSize: 0x58 }
  - { offsetInCU: 0x68DE, offset: 0x6A7F, size: 0x8, addend: 0x0, symName: __ZNSt3__130__libcpp_is_constant_evaluatedB8ue170006Ev, symObjAddr: 0xA04, symBinAddr: 0x100002448, symSize: 0xC }
  - { offsetInCU: 0x68FB, offset: 0x6A9C, size: 0x8, addend: 0x0, symName: __ZNSt3__119__libcpp_deallocateB8ue170006EPvmm, symObjAddr: 0xA10, symBinAddr: 0x100002454, symSize: 0x30 }
  - { offsetInCU: 0x6943, offset: 0x6AE4, size: 0x8, addend: 0x0, symName: __ZNSt3__127__do_deallocate_handle_sizeB8ue170006IJEEEvPvmDpT_, symObjAddr: 0xA40, symBinAddr: 0x100002484, symSize: 0x28 }
  - { offsetInCU: 0x6981, offset: 0x6B22, size: 0x8, addend: 0x0, symName: __ZNSt3__124__libcpp_operator_deleteB8ue170006IJPvEEEvDpT_, symObjAddr: 0xA68, symBinAddr: 0x1000024AC, symSize: 0x24 }
  - { offsetInCU: 0x6A76, offset: 0x6C17, size: 0x8, addend: 0x0, symName: __ZNSt3__116__pad_and_outputB8ue170006IcNS_11char_traitsIcEEEENS_19ostreambuf_iteratorIT_T0_EES6_PKS4_S8_S8_RNS_8ios_baseES4_, symObjAddr: 0x111C, symBinAddr: 0x100002B60, symSize: 0x248 }
  - { offsetInCU: 0x6B45, offset: 0x6CE6, size: 0x8, addend: 0x0, symName: __ZNSt3__112__to_addressB8ue170006IKcEEPT_S3_, symObjAddr: 0x168C, symBinAddr: 0x1000030D0, symSize: 0x14 }
  - { offsetInCU: 0x6BAD, offset: 0x6D4E, size: 0x8, addend: 0x0, symName: __ZNSt3__19use_facetB8ue170006INS_5ctypeIcEEEERKT_RKNS_6localeE, symObjAddr: 0x1964, symBinAddr: 0x1000033A8, symSize: 0x2C }
  - { offsetInCU: 0x707A, offset: 0x721B, size: 0x8, addend: 0x0, symName: __ZNSt3__118__constexpr_strlenB8ue170006EPKc, symObjAddr: 0x19FC, symBinAddr: 0x100003440, symSize: 0x24 }
  - { offsetInCU: 0x9963, offset: 0x9B04, size: 0x8, addend: 0x0, symName: __Z17argChecktoConsolei, symObjAddr: 0x0, symBinAddr: 0x100001A44, symSize: 0xC8 }
  - { offsetInCU: 0x998B, offset: 0x9B2C, size: 0x8, addend: 0x0, symName: __ZNSt3__113basic_ostreamIcNS_11char_traitsIcEEElsB8ue170006EPFRS3_S4_E, symObjAddr: 0x110, symBinAddr: 0x100001B54, symSize: 0x2C }
  - { offsetInCU: 0x99BD, offset: 0x9B5E, size: 0x8, addend: 0x0, symName: __Z12checkNumArgsiPPc, symObjAddr: 0x194, symBinAddr: 0x100001BD8, symSize: 0x19C }
  - { offsetInCU: 0x9A54, offset: 0x9BF5, size: 0x8, addend: 0x0, symName: __ZNSt3__112basic_stringIcNS_11char_traitsIcEENS_9allocatorIcEEEC1B8ue170006ILi0EEEPKc, symObjAddr: 0x330, symBinAddr: 0x100001D74, symSize: 0x34 }
  - { offsetInCU: 0x9A92, offset: 0x9C33, size: 0x8, addend: 0x0, symName: _main, symObjAddr: 0x370, symBinAddr: 0x100001DB4, symSize: 0x148 }
  - { offsetInCU: 0x9F7D, offset: 0xA11E, size: 0x8, addend: 0x0, symName: __ZN10SimulationD1Ev, symObjAddr: 0x4B8, symBinAddr: 0x100001EFC, symSize: 0x2C }
  - { offsetInCU: 0x9FA7, offset: 0xA148, size: 0x8, addend: 0x0, symName: __ZN10SimulationD2Ev, symObjAddr: 0x4E4, symBinAddr: 0x100001F28, symSize: 0x68 }
  - { offsetInCU: 0x9FD2, offset: 0xA173, size: 0x8, addend: 0x0, symName: __ZNSt3__14listIP7ProcessNS_9allocatorIS2_EEED1Ev, symObjAddr: 0x54C, symBinAddr: 0x100001F90, symSize: 0x2C }
  - { offsetInCU: 0x9FFE, offset: 0xA19F, size: 0x8, addend: 0x0, symName: __ZNSt3__14listIP5EventNS_9allocatorIS2_EEED1Ev, symObjAddr: 0x578, symBinAddr: 0x100001FBC, symSize: 0x2C }
  - { offsetInCU: 0xA02A, offset: 0xA1CB, size: 0x8, addend: 0x0, symName: __ZNSt3__14listIP7ProcessNS_9allocatorIS2_EEED2Ev, symObjAddr: 0x5A4, symBinAddr: 0x100001FE8, symSize: 0x2C }
  - { offsetInCU: 0xA056, offset: 0xA1F7, size: 0x8, addend: 0x0, symName: __ZNSt3__110__list_impIP7ProcessNS_9allocatorIS2_EEED2Ev, symObjAddr: 0x5D0, symBinAddr: 0x100002014, symSize: 0x2C }
  - { offsetInCU: 0xA081, offset: 0xA222, size: 0x8, addend: 0x0, symName: __ZNSt3__110__list_impIP7ProcessNS_9allocatorIS2_EEE5clearEv, symObjAddr: 0x5FC, symBinAddr: 0x100002040, symSize: 0xF4 }
  - { offsetInCU: 0xA0EF, offset: 0xA290, size: 0x8, addend: 0x0, symName: __ZNKSt3__110__list_impIP7ProcessNS_9allocatorIS2_EEE5emptyB8ue170006Ev, symObjAddr: 0x6F0, symBinAddr: 0x100002134, symSize: 0x34 }
  - { offsetInCU: 0xA113, offset: 0xA2B4, size: 0x8, addend: 0x0, symName: __ZNSt3__110__list_impIP7ProcessNS_9allocatorIS2_EEE12__node_allocB8ue170006Ev, symObjAddr: 0x724, symBinAddr: 0x100002168, symSize: 0x28 }
  - { offsetInCU: 0xA137, offset: 0xA2D8, size: 0x8, addend: 0x0, symName: __ZNKSt3__110__list_impIP7ProcessNS_9allocatorIS2_EEE13__end_as_linkB8ue170006Ev, symObjAddr: 0x74C, symBinAddr: 0x100002190, symSize: 0x58 }
  - { offsetInCU: 0xA15C, offset: 0xA2FD, size: 0x8, addend: 0x0, symName: __ZNSt3__110__list_impIP7ProcessNS_9allocatorIS2_EEE14__unlink_nodesEPNS_16__list_node_baseIS2_PvEES9_, symObjAddr: 0x7A4, symBinAddr: 0x1000021E8, symSize: 0x3C }
  - { offsetInCU: 0xA190, offset: 0xA331, size: 0x8, addend: 0x0, symName: __ZNSt3__110__list_impIP7ProcessNS_9allocatorIS2_EEE4__szB8ue170006Ev, symObjAddr: 0x7E0, symBinAddr: 0x100002224, symSize: 0x28 }
  - { offsetInCU: 0xA1B4, offset: 0xA355, size: 0x8, addend: 0x0, symName: __ZNSt3__116__list_node_baseIP7ProcessPvE9__as_nodeB8ue170006Ev, symObjAddr: 0x808, symBinAddr: 0x10000224C, symSize: 0x24 }
  - { offsetInCU: 0xA1DE, offset: 0xA37F, size: 0x8, addend: 0x0, symName: __ZNSt3__116allocator_traitsINS_9allocatorINS_11__list_nodeIP7ProcessPvEEEEE7destroyB8ue170006IS4_vvEEvRS7_PT_, symObjAddr: 0x82C, symBinAddr: 0x100002270, symSize: 0x14 }
  - { offsetInCU: 0xA219, offset: 0xA3BA, size: 0x8, addend: 0x0, symName: __ZNSt3__116allocator_traitsINS_9allocatorINS_11__list_nodeIP7ProcessPvEEEEE10deallocateB8ue170006ERS7_PS6_m, symObjAddr: 0x840, symBinAddr: 0x100002284, symSize: 0x34 }
  - { offsetInCU: 0xA25A, offset: 0xA3FB, size: 0x8, addend: 0x0, symName: __ZNKSt3__110__list_impIP7ProcessNS_9allocatorIS2_EEE4__szB8ue170006Ev, symObjAddr: 0x874, symBinAddr: 0x1000022B8, symSize: 0x28 }
  - { offsetInCU: 0xA27E, offset: 0xA41F, size: 0x8, addend: 0x0, symName: __ZNKSt3__117__compressed_pairImNS_9allocatorINS_11__list_nodeIP7ProcessPvEEEEE5firstB8ue170006Ev, symObjAddr: 0x89C, symBinAddr: 0x1000022E0, symSize: 0x24 }
  - { offsetInCU: 0xA2A3, offset: 0xA444, size: 0x8, addend: 0x0, symName: __ZNKSt3__122__compressed_pair_elemImLi0ELb0EE5__getB8ue170006Ev, symObjAddr: 0x8C0, symBinAddr: 0x100002304, symSize: 0x14 }
  - { offsetInCU: 0xA2C7, offset: 0xA468, size: 0x8, addend: 0x0, symName: __ZNSt3__117__compressed_pairImNS_9allocatorINS_11__list_nodeIP7ProcessPvEEEEE6secondB8ue170006Ev, symObjAddr: 0x8D4, symBinAddr: 0x100002318, symSize: 0x24 }
  - { offsetInCU: 0xA2EC, offset: 0xA48D, size: 0x8, addend: 0x0, symName: __ZNSt3__122__compressed_pair_elemINS_9allocatorINS_11__list_nodeIP7ProcessPvEEEELi1ELb1EE5__getB8ue170006Ev, symObjAddr: 0x8F8, symBinAddr: 0x10000233C, symSize: 0x14 }
  - { offsetInCU: 0xA311, offset: 0xA4B2, size: 0x8, addend: 0x0, symName: __ZNSt3__126__list_node_pointer_traitsIP7ProcessPvE26__unsafe_link_pointer_castB8ue170006EPNS_16__list_node_baseIS2_S3_EE, symObjAddr: 0x90C, symBinAddr: 0x100002350, symSize: 0x14 }
  - { offsetInCU: 0xA334, offset: 0xA4D5, size: 0x8, addend: 0x0, symName: __ZNSt3__116__list_node_baseIP7ProcessPvE6__selfB8ue170006Ev, symObjAddr: 0x920, symBinAddr: 0x100002364, symSize: 0x24 }
  - { offsetInCU: 0xA35E, offset: 0xA4FF, size: 0x8, addend: 0x0, symName: __ZNSt3__114pointer_traitsIPNS_16__list_node_baseIP7ProcessPvEEE10pointer_toB8ue170006ERS5_, symObjAddr: 0x944, symBinAddr: 0x100002388, symSize: 0x14 }
  - { offsetInCU: 0xA380, offset: 0xA521, size: 0x8, addend: 0x0, symName: __ZNSt3__117__compressed_pairImNS_9allocatorINS_11__list_nodeIP7ProcessPvEEEEE5firstB8ue170006Ev, symObjAddr: 0x958, symBinAddr: 0x10000239C, symSize: 0x24 }
  - { offsetInCU: 0xA3A5, offset: 0xA546, size: 0x8, addend: 0x0, symName: __ZNSt3__122__compressed_pair_elemImLi0ELb0EE5__getB8ue170006Ev, symObjAddr: 0x97C, symBinAddr: 0x1000023C0, symSize: 0x14 }
  - { offsetInCU: 0xA3C9, offset: 0xA56A, size: 0x8, addend: 0x0, symName: __ZNSt3__19allocatorINS_11__list_nodeIP7ProcessPvEEE10deallocateB8ue170006EPS5_m, symObjAddr: 0x990, symBinAddr: 0x1000023D4, symSize: 0x74 }
  - { offsetInCU: 0xA40A, offset: 0xA5AB, size: 0x8, addend: 0x0, symName: __ZNSt3__14listIP5EventNS_9allocatorIS2_EEED2Ev, symObjAddr: 0xA8C, symBinAddr: 0x1000024D0, symSize: 0x2C }
  - { offsetInCU: 0xA436, offset: 0xA5D7, size: 0x8, addend: 0x0, symName: __ZNSt3__110__list_impIP5EventNS_9allocatorIS2_EEED2Ev, symObjAddr: 0xAB8, symBinAddr: 0x1000024FC, symSize: 0x2C }
  - { offsetInCU: 0xA461, offset: 0xA602, size: 0x8, addend: 0x0, symName: __ZNSt3__110__list_impIP5EventNS_9allocatorIS2_EEE5clearEv, symObjAddr: 0xAE4, symBinAddr: 0x100002528, symSize: 0xF4 }
  - { offsetInCU: 0xA4CF, offset: 0xA670, size: 0x8, addend: 0x0, symName: __ZNKSt3__110__list_impIP5EventNS_9allocatorIS2_EEE5emptyB8ue170006Ev, symObjAddr: 0xBD8, symBinAddr: 0x10000261C, symSize: 0x34 }
  - { offsetInCU: 0xA4F3, offset: 0xA694, size: 0x8, addend: 0x0, symName: __ZNSt3__110__list_impIP5EventNS_9allocatorIS2_EEE12__node_allocB8ue170006Ev, symObjAddr: 0xC0C, symBinAddr: 0x100002650, symSize: 0x28 }
  - { offsetInCU: 0xA517, offset: 0xA6B8, size: 0x8, addend: 0x0, symName: __ZNKSt3__110__list_impIP5EventNS_9allocatorIS2_EEE13__end_as_linkB8ue170006Ev, symObjAddr: 0xC34, symBinAddr: 0x100002678, symSize: 0x58 }
  - { offsetInCU: 0xA53C, offset: 0xA6DD, size: 0x8, addend: 0x0, symName: __ZNSt3__110__list_impIP5EventNS_9allocatorIS2_EEE14__unlink_nodesEPNS_16__list_node_baseIS2_PvEES9_, symObjAddr: 0xC8C, symBinAddr: 0x1000026D0, symSize: 0x3C }
  - { offsetInCU: 0xA570, offset: 0xA711, size: 0x8, addend: 0x0, symName: __ZNSt3__110__list_impIP5EventNS_9allocatorIS2_EEE4__szB8ue170006Ev, symObjAddr: 0xCC8, symBinAddr: 0x10000270C, symSize: 0x28 }
  - { offsetInCU: 0xA594, offset: 0xA735, size: 0x8, addend: 0x0, symName: __ZNSt3__116__list_node_baseIP5EventPvE9__as_nodeB8ue170006Ev, symObjAddr: 0xCF0, symBinAddr: 0x100002734, symSize: 0x24 }
  - { offsetInCU: 0xA5BE, offset: 0xA75F, size: 0x8, addend: 0x0, symName: __ZNSt3__116allocator_traitsINS_9allocatorINS_11__list_nodeIP5EventPvEEEEE7destroyB8ue170006IS4_vvEEvRS7_PT_, symObjAddr: 0xD14, symBinAddr: 0x100002758, symSize: 0x14 }
  - { offsetInCU: 0xA5F9, offset: 0xA79A, size: 0x8, addend: 0x0, symName: __ZNSt3__116allocator_traitsINS_9allocatorINS_11__list_nodeIP5EventPvEEEEE10deallocateB8ue170006ERS7_PS6_m, symObjAddr: 0xD28, symBinAddr: 0x10000276C, symSize: 0x34 }
  - { offsetInCU: 0xA63A, offset: 0xA7DB, size: 0x8, addend: 0x0, symName: __ZNKSt3__110__list_impIP5EventNS_9allocatorIS2_EEE4__szB8ue170006Ev, symObjAddr: 0xD5C, symBinAddr: 0x1000027A0, symSize: 0x28 }
  - { offsetInCU: 0xA65E, offset: 0xA7FF, size: 0x8, addend: 0x0, symName: __ZNKSt3__117__compressed_pairImNS_9allocatorINS_11__list_nodeIP5EventPvEEEEE5firstB8ue170006Ev, symObjAddr: 0xD84, symBinAddr: 0x1000027C8, symSize: 0x24 }
  - { offsetInCU: 0xA682, offset: 0xA823, size: 0x8, addend: 0x0, symName: __ZNSt3__117__compressed_pairImNS_9allocatorINS_11__list_nodeIP5EventPvEEEEE6secondB8ue170006Ev, symObjAddr: 0xDA8, symBinAddr: 0x1000027EC, symSize: 0x24 }
  - { offsetInCU: 0xA6A7, offset: 0xA848, size: 0x8, addend: 0x0, symName: __ZNSt3__122__compressed_pair_elemINS_9allocatorINS_11__list_nodeIP5EventPvEEEELi1ELb1EE5__getB8ue170006Ev, symObjAddr: 0xDCC, symBinAddr: 0x100002810, symSize: 0x14 }
  - { offsetInCU: 0xA6CC, offset: 0xA86D, size: 0x8, addend: 0x0, symName: __ZNSt3__126__list_node_pointer_traitsIP5EventPvE26__unsafe_link_pointer_castB8ue170006EPNS_16__list_node_baseIS2_S3_EE, symObjAddr: 0xDE0, symBinAddr: 0x100002824, symSize: 0x14 }
  - { offsetInCU: 0xA6EF, offset: 0xA890, size: 0x8, addend: 0x0, symName: __ZNSt3__116__list_node_baseIP5EventPvE6__selfB8ue170006Ev, symObjAddr: 0xDF4, symBinAddr: 0x100002838, symSize: 0x24 }
  - { offsetInCU: 0xA719, offset: 0xA8BA, size: 0x8, addend: 0x0, symName: __ZNSt3__114pointer_traitsIPNS_16__list_node_baseIP5EventPvEEE10pointer_toB8ue170006ERS5_, symObjAddr: 0xE18, symBinAddr: 0x10000285C, symSize: 0x14 }
  - { offsetInCU: 0xA73B, offset: 0xA8DC, size: 0x8, addend: 0x0, symName: __ZNSt3__117__compressed_pairImNS_9allocatorINS_11__list_nodeIP5EventPvEEEEE5firstB8ue170006Ev, symObjAddr: 0xE2C, symBinAddr: 0x100002870, symSize: 0x24 }
  - { offsetInCU: 0xA75F, offset: 0xA900, size: 0x8, addend: 0x0, symName: __ZNSt3__19allocatorINS_11__list_nodeIP5EventPvEEE10deallocateB8ue170006EPS5_m, symObjAddr: 0xE50, symBinAddr: 0x100002894, symSize: 0x74 }
  - { offsetInCU: 0xA7A0, offset: 0xA941, size: 0x8, addend: 0x0, symName: __ZNSt3__111char_traitsIcE6lengthB8ue170006EPKc, symObjAddr: 0x10B8, symBinAddr: 0x100002AFC, symSize: 0x48 }
  - { offsetInCU: 0xA7E1, offset: 0xA982, size: 0x8, addend: 0x0, symName: __ZNKSt3__113basic_ostreamIcNS_11char_traitsIcEEE6sentrycvbB8ue170006Ev, symObjAddr: 0x1100, symBinAddr: 0x100002B44, symSize: 0x1C }
  - { offsetInCU: 0xA805, offset: 0xA9A6, size: 0x8, addend: 0x0, symName: __ZNSt3__119ostreambuf_iteratorIcNS_11char_traitsIcEEEC1B8ue170006ERNS_13basic_ostreamIcS2_EE, symObjAddr: 0x1364, symBinAddr: 0x100002DA8, symSize: 0x34 }
  - { offsetInCU: 0xA83D, offset: 0xA9DE, size: 0x8, addend: 0x0, symName: __ZNKSt3__18ios_base5flagsB8ue170006Ev, symObjAddr: 0x1398, symBinAddr: 0x100002DDC, symSize: 0x18 }
  - { offsetInCU: 0xA864, offset: 0xAA05, size: 0x8, addend: 0x0, symName: __ZNKSt3__19basic_iosIcNS_11char_traitsIcEEE4fillB8ue170006Ev, symObjAddr: 0x13B0, symBinAddr: 0x100002DF4, symSize: 0x64 }
  - { offsetInCU: 0xA88B, offset: 0xAA2C, size: 0x8, addend: 0x0, symName: __ZNKSt3__119ostreambuf_iteratorIcNS_11char_traitsIcEEE6failedB8ue170006Ev, symObjAddr: 0x1414, symBinAddr: 0x100002E58, symSize: 0x24 }
  - { offsetInCU: 0xA8AF, offset: 0xAA50, size: 0x8, addend: 0x0, symName: __ZNSt3__19basic_iosIcNS_11char_traitsIcEEE8setstateB8ue170006Ej, symObjAddr: 0x1438, symBinAddr: 0x100002E7C, symSize: 0x2C }
  - { offsetInCU: 0xA8E3, offset: 0xAA84, size: 0x8, addend: 0x0, symName: __ZNKSt3__18ios_base5widthB8ue170006Ev, symObjAddr: 0x1464, symBinAddr: 0x100002EA8, symSize: 0x18 }
  - { offsetInCU: 0xA909, offset: 0xAAAA, size: 0x8, addend: 0x0, symName: __ZNSt3__115basic_streambufIcNS_11char_traitsIcEEE5sputnB8ue170006EPKcl, symObjAddr: 0x147C, symBinAddr: 0x100002EC0, symSize: 0x3C }
  - { offsetInCU: 0xA949, offset: 0xAAEA, size: 0x8, addend: 0x0, symName: __ZNSt3__112basic_stringIcNS_11char_traitsIcEENS_9allocatorIcEEEC1B8ue170006Emc, symObjAddr: 0x14B8, symBinAddr: 0x100002EFC, symSize: 0x3C }
  - { offsetInCU: 0xA990, offset: 0xAB31, size: 0x8, addend: 0x0, symName: __ZNKSt3__112basic_stringIcNS_11char_traitsIcEENS_9allocatorIcEEE4dataB8ue170006Ev, symObjAddr: 0x14F4, symBinAddr: 0x100002F38, symSize: 0x28 }
  - { offsetInCU: 0xA9B5, offset: 0xAB56, size: 0x8, addend: 0x0, symName: __ZNSt3__18ios_base5widthB8ue170006El, symObjAddr: 0x151C, symBinAddr: 0x100002F60, symSize: 0x2C }
  - { offsetInCU: 0xA9F9, offset: 0xAB9A, size: 0x8, addend: 0x0, symName: __ZNSt3__112basic_stringIcNS_11char_traitsIcEENS_9allocatorIcEEEC2B8ue170006Emc, symObjAddr: 0x1548, symBinAddr: 0x100002F8C, symSize: 0x4C }
  - { offsetInCU: 0xAA45, offset: 0xABE6, size: 0x8, addend: 0x0, symName: __ZNSt3__117__compressed_pairINS_12basic_stringIcNS_11char_traitsIcEENS_9allocatorIcEEE5__repES5_EC1B8ue170006INS_18__default_init_tagESA_EEOT_OT0_, symObjAddr: 0x1594, symBinAddr: 0x100002FD8, symSize: 0x3C }
  - { offsetInCU: 0xAA9C, offset: 0xAC3D, size: 0x8, addend: 0x0, symName: __ZNSt3__117__compressed_pairINS_12basic_stringIcNS_11char_traitsIcEENS_9allocatorIcEEE5__repES5_EC2B8ue170006INS_18__default_init_tagESA_EEOT_OT0_, symObjAddr: 0x15D0, symBinAddr: 0x100003014, symSize: 0x3C }
  - { offsetInCU: 0xAAF4, offset: 0xAC95, size: 0x8, addend: 0x0, symName: __ZNSt3__122__compressed_pair_elemINS_12basic_stringIcNS_11char_traitsIcEENS_9allocatorIcEEE5__repELi0ELb0EEC2B8ue170006ENS_18__default_init_tagE, symObjAddr: 0x160C, symBinAddr: 0x100003050, symSize: 0x14 }
  - { offsetInCU: 0xAB27, offset: 0xACC8, size: 0x8, addend: 0x0, symName: __ZNSt3__122__compressed_pair_elemINS_9allocatorIcEELi1ELb1EEC2B8ue170006ENS_18__default_init_tagE, symObjAddr: 0x1620, symBinAddr: 0x100003064, symSize: 0x2C }
  - { offsetInCU: 0xAB5B, offset: 0xACFC, size: 0x8, addend: 0x0, symName: __ZNSt3__19allocatorIcEC2B8ue170006Ev, symObjAddr: 0x164C, symBinAddr: 0x100003090, symSize: 0x2C }
  - { offsetInCU: 0xAB85, offset: 0xAD26, size: 0x8, addend: 0x0, symName: __ZNSt3__116__non_trivial_ifILb1ENS_9allocatorIcEEEC2B8ue170006Ev, symObjAddr: 0x1678, symBinAddr: 0x1000030BC, symSize: 0x14 }
  - { offsetInCU: 0xABAD, offset: 0xAD4E, size: 0x8, addend: 0x0, symName: __ZNKSt3__112basic_stringIcNS_11char_traitsIcEENS_9allocatorIcEEE13__get_pointerB8ue170006Ev, symObjAddr: 0x16A0, symBinAddr: 0x1000030E4, symSize: 0x54 }
  - { offsetInCU: 0xABD1, offset: 0xAD72, size: 0x8, addend: 0x0, symName: __ZNKSt3__112basic_stringIcNS_11char_traitsIcEENS_9allocatorIcEEE9__is_longB8ue170006Ev, symObjAddr: 0x16F4, symBinAddr: 0x100003138, symSize: 0x74 }
  - { offsetInCU: 0xABF5, offset: 0xAD96, size: 0x8, addend: 0x0, symName: __ZNKSt3__112basic_stringIcNS_11char_traitsIcEENS_9allocatorIcEEE18__get_long_pointerB8ue170006Ev, symObjAddr: 0x1768, symBinAddr: 0x1000031AC, symSize: 0x28 }
  - { offsetInCU: 0xAC19, offset: 0xADBA, size: 0x8, addend: 0x0, symName: __ZNKSt3__112basic_stringIcNS_11char_traitsIcEENS_9allocatorIcEEE19__get_short_pointerB8ue170006Ev, symObjAddr: 0x1790, symBinAddr: 0x1000031D4, symSize: 0x28 }
  - { offsetInCU: 0xAC3D, offset: 0xADDE, size: 0x8, addend: 0x0, symName: __ZNKSt3__117__compressed_pairINS_12basic_stringIcNS_11char_traitsIcEENS_9allocatorIcEEE5__repES5_E5firstB8ue170006Ev, symObjAddr: 0x17B8, symBinAddr: 0x1000031FC, symSize: 0x24 }
  - { offsetInCU: 0xAC62, offset: 0xAE03, size: 0x8, addend: 0x0, symName: __ZNKSt3__122__compressed_pair_elemINS_12basic_stringIcNS_11char_traitsIcEENS_9allocatorIcEEE5__repELi0ELb0EE5__getB8ue170006Ev, symObjAddr: 0x17DC, symBinAddr: 0x100003220, symSize: 0x14 }
  - { offsetInCU: 0xAC87, offset: 0xAE28, size: 0x8, addend: 0x0, symName: __ZNSt3__114pointer_traitsIPKcE10pointer_toB8ue170006ERS1_, symObjAddr: 0x17F0, symBinAddr: 0x100003234, symSize: 0x14 }
  - { offsetInCU: 0xACA9, offset: 0xAE4A, size: 0x8, addend: 0x0, symName: __ZNSt3__119ostreambuf_iteratorIcNS_11char_traitsIcEEEC2B8ue170006ERNS_13basic_ostreamIcS2_EE, symObjAddr: 0x1804, symBinAddr: 0x100003248, symSize: 0x68 }
  - { offsetInCU: 0xACE1, offset: 0xAE82, size: 0x8, addend: 0x0, symName: __ZNKSt3__19basic_iosIcNS_11char_traitsIcEEE5rdbufB8ue170006Ev, symObjAddr: 0x186C, symBinAddr: 0x1000032B0, symSize: 0x24 }
  - { offsetInCU: 0xAD08, offset: 0xAEA9, size: 0x8, addend: 0x0, symName: __ZNKSt3__18ios_base5rdbufB8ue170006Ev, symObjAddr: 0x1890, symBinAddr: 0x1000032D4, symSize: 0x18 }
  - { offsetInCU: 0xAD2D, offset: 0xAECE, size: 0x8, addend: 0x0, symName: __ZNSt3__111char_traitsIcE11eq_int_typeB8ue170006Eii, symObjAddr: 0x18A8, symBinAddr: 0x1000032EC, symSize: 0x28 }
  - { offsetInCU: 0xAD60, offset: 0xAF01, size: 0x8, addend: 0x0, symName: __ZNSt3__111char_traitsIcE3eofB8ue170006Ev, symObjAddr: 0x18D0, symBinAddr: 0x100003314, symSize: 0x8 }
  - { offsetInCU: 0xAD74, offset: 0xAF15, size: 0x8, addend: 0x0, symName: __ZNKSt3__19basic_iosIcNS_11char_traitsIcEEE5widenB8ue170006Ec, symObjAddr: 0x18D8, symBinAddr: 0x10000331C, symSize: 0x8C }
  - { offsetInCU: 0xADE0, offset: 0xAF81, size: 0x8, addend: 0x0, symName: __ZNKSt3__15ctypeIcE5widenB8ue170006Ec, symObjAddr: 0x1990, symBinAddr: 0x1000033D4, symSize: 0x38 }
  - { offsetInCU: 0xAE14, offset: 0xAFB5, size: 0x8, addend: 0x0, symName: __ZNSt3__18ios_base8setstateB8ue170006Ej, symObjAddr: 0x19C8, symBinAddr: 0x10000340C, symSize: 0x34 }
  - { offsetInCU: 0xAE49, offset: 0xAFEA, size: 0x8, addend: 0x0, symName: __ZNSt3__112basic_stringIcNS_11char_traitsIcEENS_9allocatorIcEEEC2B8ue170006ILi0EEEPKc, symObjAddr: 0x1A20, symBinAddr: 0x100003464, symSize: 0x58 }
  - { offsetInCU: 0x67F3, offset: 0x1190B, size: 0x8, addend: 0x0, symName: __ZNSt3__1neB8ue170006ERKNS_15__list_iteratorIP5EventPvEES6_, symObjAddr: 0x9BC, symBinAddr: 0x100003E14, symSize: 0x34 }
  - { offsetInCU: 0x6830, offset: 0x11948, size: 0x8, addend: 0x0, symName: __ZNSt3__1lsB8ue170006IcNS_11char_traitsIcEEEERNS_13basic_ostreamIT_T0_EES7_RKNS_8__iom_t5E, symObjAddr: 0x1378, symBinAddr: 0x1000047D0, symSize: 0x40 }
  - { offsetInCU: 0x687C, offset: 0x11994, size: 0x8, addend: 0x0, symName: __ZNSt3__15fixedB8ue170006ERNS_8ios_baseE, symObjAddr: 0x13F8, symBinAddr: 0x100004850, symSize: 0x30 }
  - { offsetInCU: 0x68AA, offset: 0x119C2, size: 0x8, addend: 0x0, symName: __ZNSt3__112setprecisionB8ue170006Ei, symObjAddr: 0x1428, symBinAddr: 0x100004880, symSize: 0x2C }
  - { offsetInCU: 0x68D6, offset: 0x119EE, size: 0x8, addend: 0x0, symName: __ZNSt3__1lsB8ue170006IcNS_11char_traitsIcEEEERNS_13basic_ostreamIT_T0_EES7_RKNS_8__iom_t6E, symObjAddr: 0x149C, symBinAddr: 0x1000048AC, symSize: 0x40 }
  - { offsetInCU: 0x6925, offset: 0x11A3D, size: 0x8, addend: 0x0, symName: __ZNSt3__14setwB8ue170006Ei, symObjAddr: 0x14DC, symBinAddr: 0x1000048EC, symSize: 0x2C }
  - { offsetInCU: 0x6953, offset: 0x11A6B, size: 0x8, addend: 0x0, symName: __ZNSt3__1rsB8ue170006IcNS_11char_traitsIcEENS_9allocatorIcEEEERNS_13basic_istreamIT_T0_EES9_RNS_12basic_stringIS6_S7_T1_EE, symObjAddr: 0x1808, symBinAddr: 0x100004C18, symSize: 0x314 }
  - { offsetInCU: 0x7263, offset: 0x1237B, size: 0x8, addend: 0x0, symName: __ZNSt3__117__libcpp_allocateB8ue170006Emm, symObjAddr: 0x31D8, symBinAddr: 0x100005C44, symSize: 0x28 }
  - { offsetInCU: 0x72A0, offset: 0x123B8, size: 0x8, addend: 0x0, symName: __ZNSt3__121__libcpp_operator_newB8ue170006IJmEEEPvDpT_, symObjAddr: 0x3218, symBinAddr: 0x100005C84, symSize: 0x24 }
  - { offsetInCU: 0x72F7, offset: 0x1240F, size: 0x8, addend: 0x0, symName: __ZNSt3__1eqB8ue170006ERKNS_15__list_iteratorIP5EventPvEES6_, symObjAddr: 0x3CB0, symBinAddr: 0x10000671C, symSize: 0x30 }
  - { offsetInCU: 0x7D16, offset: 0x12E2E, size: 0x8, addend: 0x0, symName: __ZSt28__throw_bad_array_new_lengthB8ue170006v, symObjAddr: 0x31A4, symBinAddr: 0x100005C10, symSize: 0x34 }
  - { offsetInCU: 0x9F6D, offset: 0x15085, size: 0x8, addend: 0x0, symName: __ZN5EventC2EfiP7Process, symObjAddr: 0x0, symBinAddr: 0x1000034BC, symSize: 0x38 }
  - { offsetInCU: 0x9FC1, offset: 0x150D9, size: 0x8, addend: 0x0, symName: __ZN5EventC1EfiP7Process, symObjAddr: 0x38, symBinAddr: 0x1000034F4, symSize: 0x44 }
  - { offsetInCU: 0xA015, offset: 0x1512D, size: 0x8, addend: 0x0, symName: __ZN5EventC2Ev, symObjAddr: 0x7C, symBinAddr: 0x100003538, symSize: 0x24 }
  - { offsetInCU: 0xA03F, offset: 0x15157, size: 0x8, addend: 0x0, symName: __ZN5EventC1Ev, symObjAddr: 0xA0, symBinAddr: 0x10000355C, symSize: 0x2C }
  - { offsetInCU: 0xA3FD, offset: 0x15515, size: 0x8, addend: 0x0, symName: __ZN10SimulationC2Eff, symObjAddr: 0xCC, symBinAddr: 0x100003588, symSize: 0x304 }
  - { offsetInCU: 0xA491, offset: 0x155A9, size: 0x8, addend: 0x0, symName: __ZNSt3__14listIP5EventNS_9allocatorIS2_EEEC1B8ue170006Ev, symObjAddr: 0x3D0, symBinAddr: 0x10000388C, symSize: 0x2C }
  - { offsetInCU: 0xA4BA, offset: 0x155D2, size: 0x8, addend: 0x0, symName: __ZNSt3__14listIP7ProcessNS_9allocatorIS2_EEEC1B8ue170006Ev, symObjAddr: 0x3FC, symBinAddr: 0x1000038B8, symSize: 0x2C }
  - { offsetInCU: 0xA4E3, offset: 0x155FB, size: 0x8, addend: 0x0, symName: __ZNSt3__14listIP5EventNS_9allocatorIS2_EEE9push_backERKS2_, symObjAddr: 0x428, symBinAddr: 0x1000038E4, symSize: 0xFC }
  - { offsetInCU: 0xA537, offset: 0x1564F, size: 0x8, addend: 0x0, symName: __ZN10Simulation17exponentialRandomEf, symObjAddr: 0x524, symBinAddr: 0x1000039E0, symSize: 0x58 }
  - { offsetInCU: 0xA57B, offset: 0x15693, size: 0x8, addend: 0x0, symName: __ZNSt3__14listIP7ProcessNS_9allocatorIS2_EEE9push_backERKS2_, symObjAddr: 0x57C, symBinAddr: 0x100003A38, symSize: 0xFC }
  - { offsetInCU: 0xA5CF, offset: 0x156E7, size: 0x8, addend: 0x0, symName: __ZN10SimulationC1Eff, symObjAddr: 0x6DC, symBinAddr: 0x100003B34, symSize: 0x3C }
  - { offsetInCU: 0xA614, offset: 0x1572C, size: 0x8, addend: 0x0, symName: __Z3logB8ue170006f, symObjAddr: 0x718, symBinAddr: 0x100003B70, symSize: 0x24 }
  - { offsetInCU: 0xA643, offset: 0x1575B, size: 0x8, addend: 0x0, symName: __ZN10Simulation13scheduleEventEP5Event, symObjAddr: 0x73C, symBinAddr: 0x100003B94, symSize: 0x118 }
  - { offsetInCU: 0xA696, offset: 0x157AE, size: 0x8, addend: 0x0, symName: __ZNKSt3__14listIP5EventNS_9allocatorIS2_EEE5emptyB8ue170006Ev, symObjAddr: 0x854, symBinAddr: 0x100003CAC, symSize: 0x28 }
  - { offsetInCU: 0xA6BA, offset: 0x157D2, size: 0x8, addend: 0x0, symName: __ZNSt3__14listIP5EventNS_9allocatorIS2_EEE5frontB8ue170006Ev, symObjAddr: 0x87C, symBinAddr: 0x100003CD4, symSize: 0x2C }
  - { offsetInCU: 0xA6DE, offset: 0x157F6, size: 0x8, addend: 0x0, symName: __ZNSt3__14listIP5EventNS_9allocatorIS2_EEE10push_frontERKS2_, symObjAddr: 0x8A8, symBinAddr: 0x100003D00, symSize: 0xE8 }
  - { offsetInCU: 0xA741, offset: 0x15859, size: 0x8, addend: 0x0, symName: __ZNSt3__14listIP5EventNS_9allocatorIS2_EEE5beginB8ue170006Ev, symObjAddr: 0x990, symBinAddr: 0x100003DE8, symSize: 0x2C }
  - { offsetInCU: 0xA765, offset: 0x1587D, size: 0x8, addend: 0x0, symName: __ZNSt3__14listIP5EventNS_9allocatorIS2_EEE3endB8ue170006Ev, symObjAddr: 0x9F0, symBinAddr: 0x100003E48, symSize: 0x2C }
  - { offsetInCU: 0xA789, offset: 0x158A1, size: 0x8, addend: 0x0, symName: __ZNKSt3__115__list_iteratorIP5EventPvEdeB8ue170006Ev, symObjAddr: 0xA1C, symBinAddr: 0x100003E74, symSize: 0x2C }
  - { offsetInCU: 0xA7AD, offset: 0x158C5, size: 0x8, addend: 0x0, symName: __ZNSt3__115__list_iteratorIP5EventPvEppB8ue170006Ev, symObjAddr: 0xA48, symBinAddr: 0x100003EA0, symSize: 0x20 }
  - { offsetInCU: 0xA7D2, offset: 0x158EA, size: 0x8, addend: 0x0, symName: __ZNSt3__14listIP5EventNS_9allocatorIS2_EEE6insertENS_21__list_const_iteratorIS2_PvEERKS2_, symObjAddr: 0xA68, symBinAddr: 0x100003EC0, symSize: 0x118 }
  - { offsetInCU: 0xA835, offset: 0x1594D, size: 0x8, addend: 0x0, symName: __ZNSt3__121__list_const_iteratorIP5EventPvEC1B8ue170006ERKNS_15__list_iteratorIS2_S3_EE, symObjAddr: 0xB80, symBinAddr: 0x100003FD8, symSize: 0x34 }
  - { offsetInCU: 0xA86D, offset: 0x15985, size: 0x8, addend: 0x0, symName: __ZN10Simulation13handleArrivalEP5Event, symObjAddr: 0xBB4, symBinAddr: 0x10000400C, symSize: 0x17C }
  - { offsetInCU: 0xA8CF, offset: 0x159E7, size: 0x8, addend: 0x0, symName: __ZNKSt3__14listIP7ProcessNS_9allocatorIS2_EEE5emptyB8ue170006Ev, symObjAddr: 0xD30, symBinAddr: 0x100004188, symSize: 0x28 }
  - { offsetInCU: 0xA8F3, offset: 0x15A0B, size: 0x8, addend: 0x0, symName: __ZNSt3__14listIP7ProcessNS_9allocatorIS2_EEE5frontB8ue170006Ev, symObjAddr: 0xD58, symBinAddr: 0x1000041B0, symSize: 0x2C }
  - { offsetInCU: 0xA917, offset: 0x15A2F, size: 0x8, addend: 0x0, symName: __ZNSt3__14listIP7ProcessNS_9allocatorIS2_EEE9pop_frontEv, symObjAddr: 0xD84, symBinAddr: 0x1000041DC, symSize: 0x84 }
  - { offsetInCU: 0xA96B, offset: 0x15A83, size: 0x8, addend: 0x0, symName: __ZN10Simulation15handleDepartureEP5Event, symObjAddr: 0xE08, symBinAddr: 0x100004260, symSize: 0xD4 }
  - { offsetInCU: 0xA9CD, offset: 0x15AE5, size: 0x8, addend: 0x0, symName: __ZN10Simulation10handlePollEP5Event, symObjAddr: 0xEDC, symBinAddr: 0x100004334, symSize: 0xE0 }
  - { offsetInCU: 0xAA20, offset: 0x15B38, size: 0x8, addend: 0x0, symName: __ZNKSt3__14listIP7ProcessNS_9allocatorIS2_EEE4sizeB8ue170006Ev, symObjAddr: 0xFBC, symBinAddr: 0x100004414, symSize: 0x28 }
  - { offsetInCU: 0xAA44, offset: 0x15B5C, size: 0x8, addend: 0x0, symName: __ZN10Simulation8getEventEv, symObjAddr: 0xFE4, symBinAddr: 0x10000443C, symSize: 0x58 }
  - { offsetInCU: 0xAA7A, offset: 0x15B92, size: 0x8, addend: 0x0, symName: __ZNSt3__14listIP5EventNS_9allocatorIS2_EEE9pop_frontEv, symObjAddr: 0x103C, symBinAddr: 0x100004494, symSize: 0x84 }
  - { offsetInCU: 0xAACE, offset: 0x15BE6, size: 0x8, addend: 0x0, symName: __ZN10Simulation16calculateMetricsEv, symObjAddr: 0x10C0, symBinAddr: 0x100004518, symSize: 0x54 }
  - { offsetInCU: 0xAAF5, offset: 0x15C0D, size: 0x8, addend: 0x0, symName: __ZN10Simulation6outputEv, symObjAddr: 0x1114, symBinAddr: 0x10000456C, symSize: 0x264 }
  - { offsetInCU: 0xAB1C, offset: 0x15C34, size: 0x8, addend: 0x0, symName: __ZNSt3__113basic_ostreamIcNS_11char_traitsIcEEElsB8ue170006EPFRNS_8ios_baseES5_E, symObjAddr: 0x13B8, symBinAddr: 0x100004810, symSize: 0x40 }
  - { offsetInCU: 0xAB4E, offset: 0x15C66, size: 0x8, addend: 0x0, symName: __ZN10Simulation10writeToLogEv, symObjAddr: 0x1508, symBinAddr: 0x100004918, symSize: 0x2D4 }
  - { offsetInCU: 0xAB96, offset: 0x15CAE, size: 0x8, addend: 0x0, symName: __ZNSt3__112basic_stringIcNS_11char_traitsIcEENS_9allocatorIcEEEC1B8ue170006Ev, symObjAddr: 0x17DC, symBinAddr: 0x100004BEC, symSize: 0x2C }
  - { offsetInCU: 0xAC57, offset: 0x15D6F, size: 0x8, addend: 0x0, symName: __ZNSt3__114basic_ofstreamIcNS_11char_traitsIcEEEC1ERKNS_12basic_stringIcS2_NS_9allocatorIcEEEEj, symObjAddr: 0x1B1C, symBinAddr: 0x100004F2C, symSize: 0x17C }
  - { offsetInCU: 0xACA0, offset: 0x15DB8, size: 0x8, addend: 0x0, symName: __ZNKSt3__19basic_iosIcNS_11char_traitsIcEEEntB8ue170006Ev, symObjAddr: 0x1C98, symBinAddr: 0x1000050A8, symSize: 0x28 }
  - { offsetInCU: 0xACC4, offset: 0x15DDC, size: 0x8, addend: 0x0, symName: __ZNSt3__114basic_ofstreamIcNS_11char_traitsIcEEE5closeEv, symObjAddr: 0x1D44, symBinAddr: 0x1000050D0, symSize: 0x58 }
  - { offsetInCU: 0xACF0, offset: 0x15E08, size: 0x8, addend: 0x0, symName: __ZNSt3__114basic_ofstreamIcNS_11char_traitsIcEEED1Ev, symObjAddr: 0x1D9C, symBinAddr: 0x100005128, symSize: 0x70 }
  - { offsetInCU: 0xAD1C, offset: 0x15E34, size: 0x8, addend: 0x0, symName: __ZN10Simulation3runEv, symObjAddr: 0x1E0C, symBinAddr: 0x100005198, symSize: 0x188 }
  - { offsetInCU: 0xAD70, offset: 0x15E88, size: 0x8, addend: 0x0, symName: __ZNSt3__18ios_base4setfB8ue170006Ejj, symObjAddr: 0x28B4, symBinAddr: 0x100005320, symSize: 0x5C }
  - { offsetInCU: 0xADC4, offset: 0x15EDC, size: 0x8, addend: 0x0, symName: __ZNSt3__18ios_base6unsetfB8ue170006Ej, symObjAddr: 0x2910, symBinAddr: 0x10000537C, symSize: 0x28 }
  - { offsetInCU: 0xADFA, offset: 0x15F12, size: 0x8, addend: 0x0, symName: __ZNSt3__18__iom_t5C1B8ue170006Ei, symObjAddr: 0x2938, symBinAddr: 0x1000053A4, symSize: 0x34 }
  - { offsetInCU: 0xAE31, offset: 0x15F49, size: 0x8, addend: 0x0, symName: __ZNSt3__18__iom_t5C2B8ue170006Ei, symObjAddr: 0x296C, symBinAddr: 0x1000053D8, symSize: 0x20 }
  - { offsetInCU: 0xAE68, offset: 0x15F80, size: 0x8, addend: 0x0, symName: __ZNSt3__18__iom_t6C1B8ue170006Ei, symObjAddr: 0x298C, symBinAddr: 0x1000053F8, symSize: 0x34 }
  - { offsetInCU: 0xAE9F, offset: 0x15FB7, size: 0x8, addend: 0x0, symName: __ZNSt3__18__iom_t6C2B8ue170006Ei, symObjAddr: 0x29C0, symBinAddr: 0x10000542C, symSize: 0x20 }
  - { offsetInCU: 0xAED6, offset: 0x15FEE, size: 0x8, addend: 0x0, symName: __ZNSt3__114basic_ofstreamIcNS_11char_traitsIcEEED2Ev, symObjAddr: 0x29E0, symBinAddr: 0x10000544C, symSize: 0x9C }
  - { offsetInCU: 0xAF0E, offset: 0x16026, size: 0x8, addend: 0x0, symName: __ZTv0_n24_NSt3__114basic_ofstreamIcNS_11char_traitsIcEEED1Ev, symObjAddr: 0x2A7C, symBinAddr: 0x1000054E8, symSize: 0x28 }
  - { offsetInCU: 0xAF25, offset: 0x1603D, size: 0x8, addend: 0x0, symName: __ZNSt3__14listIP5EventNS_9allocatorIS2_EEEC2B8ue170006Ev, symObjAddr: 0x2AA4, symBinAddr: 0x100005510, symSize: 0x2C }
  - { offsetInCU: 0xAF4E, offset: 0x16066, size: 0x8, addend: 0x0, symName: __ZNSt3__110__list_impIP5EventNS_9allocatorIS2_EEEC2Ev, symObjAddr: 0x2AD0, symBinAddr: 0x10000553C, symSize: 0x44 }
  - { offsetInCU: 0xAF79, offset: 0x16091, size: 0x8, addend: 0x0, symName: __ZNSt3__116__list_node_baseIP5EventPvEC1B8ue170006Ev, symObjAddr: 0x2B14, symBinAddr: 0x100005580, symSize: 0x2C }
  - { offsetInCU: 0xAFAC, offset: 0x160C4, size: 0x8, addend: 0x0, symName: __ZNSt3__117__compressed_pairImNS_9allocatorINS_11__list_nodeIP5EventPvEEEEEC1B8ue170006IiNS_18__default_init_tagEEEOT_OT0_, symObjAddr: 0x2B40, symBinAddr: 0x1000055AC, symSize: 0x3C }
  - { offsetInCU: 0xB003, offset: 0x1611B, size: 0x8, addend: 0x0, symName: __ZNSt3__116__list_node_baseIP5EventPvEC2B8ue170006Ev, symObjAddr: 0x2B7C, symBinAddr: 0x1000055E8, symSize: 0x4C }
  - { offsetInCU: 0xB02C, offset: 0x16144, size: 0x8, addend: 0x0, symName: __ZNSt3__117__compressed_pairImNS_9allocatorINS_11__list_nodeIP5EventPvEEEEEC2B8ue170006IiNS_18__default_init_tagEEEOT_OT0_, symObjAddr: 0x2BC8, symBinAddr: 0x100005634, symSize: 0x40 }
  - { offsetInCU: 0xB083, offset: 0x1619B, size: 0x8, addend: 0x0, symName: __ZNSt3__122__compressed_pair_elemImLi0ELb0EEC2B8ue170006IivEEOT_, symObjAddr: 0x2C08, symBinAddr: 0x100005674, symSize: 0x24 }
  - { offsetInCU: 0xB0C4, offset: 0x161DC, size: 0x8, addend: 0x0, symName: __ZNSt3__122__compressed_pair_elemINS_9allocatorINS_11__list_nodeIP5EventPvEEEELi1ELb1EEC2B8ue170006ENS_18__default_init_tagE, symObjAddr: 0x2C2C, symBinAddr: 0x100005698, symSize: 0x2C }
  - { offsetInCU: 0xB0F8, offset: 0x16210, size: 0x8, addend: 0x0, symName: __ZNSt3__19allocatorINS_11__list_nodeIP5EventPvEEEC2B8ue170006Ev, symObjAddr: 0x2C58, symBinAddr: 0x1000056C4, symSize: 0x2C }
  - { offsetInCU: 0xB121, offset: 0x16239, size: 0x8, addend: 0x0, symName: __ZNSt3__116__non_trivial_ifILb1ENS_9allocatorINS_11__list_nodeIP5EventPvEEEEEC2B8ue170006Ev, symObjAddr: 0x2C84, symBinAddr: 0x1000056F0, symSize: 0x14 }
  - { offsetInCU: 0xB14A, offset: 0x16262, size: 0x8, addend: 0x0, symName: __ZNSt3__14listIP7ProcessNS_9allocatorIS2_EEEC2B8ue170006Ev, symObjAddr: 0x2C98, symBinAddr: 0x100005704, symSize: 0x2C }
  - { offsetInCU: 0xB173, offset: 0x1628B, size: 0x8, addend: 0x0, symName: __ZNSt3__110__list_impIP7ProcessNS_9allocatorIS2_EEEC2Ev, symObjAddr: 0x2CC4, symBinAddr: 0x100005730, symSize: 0x44 }
  - { offsetInCU: 0xB19E, offset: 0x162B6, size: 0x8, addend: 0x0, symName: __ZNSt3__116__list_node_baseIP7ProcessPvEC1B8ue170006Ev, symObjAddr: 0x2D08, symBinAddr: 0x100005774, symSize: 0x2C }
  - { offsetInCU: 0xB1C7, offset: 0x162DF, size: 0x8, addend: 0x0, symName: __ZNSt3__117__compressed_pairImNS_9allocatorINS_11__list_nodeIP7ProcessPvEEEEEC1B8ue170006IiNS_18__default_init_tagEEEOT_OT0_, symObjAddr: 0x2D34, symBinAddr: 0x1000057A0, symSize: 0x3C }
  - { offsetInCU: 0xB21E, offset: 0x16336, size: 0x8, addend: 0x0, symName: __ZNSt3__116__list_node_baseIP7ProcessPvEC2B8ue170006Ev, symObjAddr: 0x2D70, symBinAddr: 0x1000057DC, symSize: 0x4C }
  - { offsetInCU: 0xB247, offset: 0x1635F, size: 0x8, addend: 0x0, symName: __ZNSt3__117__compressed_pairImNS_9allocatorINS_11__list_nodeIP7ProcessPvEEEEEC2B8ue170006IiNS_18__default_init_tagEEEOT_OT0_, symObjAddr: 0x2DBC, symBinAddr: 0x100005828, symSize: 0x40 }
  - { offsetInCU: 0xB29E, offset: 0x163B6, size: 0x8, addend: 0x0, symName: __ZNSt3__122__compressed_pair_elemINS_9allocatorINS_11__list_nodeIP7ProcessPvEEEELi1ELb1EEC2B8ue170006ENS_18__default_init_tagE, symObjAddr: 0x2DFC, symBinAddr: 0x100005868, symSize: 0x2C }
  - { offsetInCU: 0xB2D2, offset: 0x163EA, size: 0x8, addend: 0x0, symName: __ZNSt3__19allocatorINS_11__list_nodeIP7ProcessPvEEEC2B8ue170006Ev, symObjAddr: 0x2E28, symBinAddr: 0x100005894, symSize: 0x2C }
  - { offsetInCU: 0xB2FB, offset: 0x16413, size: 0x8, addend: 0x0, symName: __ZNSt3__116__non_trivial_ifILb1ENS_9allocatorINS_11__list_nodeIP7ProcessPvEEEEEC2B8ue170006Ev, symObjAddr: 0x2E54, symBinAddr: 0x1000058C0, symSize: 0x14 }
  - { offsetInCU: 0xB324, offset: 0x1643C, size: 0x8, addend: 0x0, symName: __ZNSt3__14listIP5EventNS_9allocatorIS2_EEE15__allocate_nodeB8ue170006ERNS3_INS_11__list_nodeIS2_PvEEEE, symObjAddr: 0x2E68, symBinAddr: 0x1000058D4, symSize: 0x70 }
  - { offsetInCU: 0xB366, offset: 0x1647E, size: 0x8, addend: 0x0, symName: __ZNSt3__116allocator_traitsINS_9allocatorINS_11__list_nodeIP5EventPvEEEEE9constructB8ue170006IS4_JRKS4_EvEEvRS7_PT_DpOT0_, symObjAddr: 0x2ED8, symBinAddr: 0x100005944, symSize: 0x34 }
  - { offsetInCU: 0xB3BD, offset: 0x164D5, size: 0x8, addend: 0x0, symName: __ZNKSt3__110unique_ptrINS_11__list_nodeIP5EventPvEENS_22__allocator_destructorINS_9allocatorIS5_EEEEEptB8ue170006Ev, symObjAddr: 0x2F0C, symBinAddr: 0x100005978, symSize: 0x28 }
  - { offsetInCU: 0xB3E1, offset: 0x164F9, size: 0x8, addend: 0x0, symName: __ZNSt3__14listIP5EventNS_9allocatorIS2_EEE20__link_nodes_at_backEPNS_16__list_node_baseIS2_PvEES9_, symObjAddr: 0x2F34, symBinAddr: 0x1000059A0, symSize: 0x60 }
  - { offsetInCU: 0xB426, offset: 0x1653E, size: 0x8, addend: 0x0, symName: __ZNKSt3__110unique_ptrINS_11__list_nodeIP5EventPvEENS_22__allocator_destructorINS_9allocatorIS5_EEEEE3getB8ue170006Ev, symObjAddr: 0x2F94, symBinAddr: 0x100005A00, symSize: 0x28 }
  - { offsetInCU: 0xB44A, offset: 0x16562, size: 0x8, addend: 0x0, symName: __ZNSt3__111__list_nodeIP5EventPvE9__as_linkB8ue170006Ev, symObjAddr: 0x2FBC, symBinAddr: 0x100005A28, symSize: 0x24 }
  - { offsetInCU: 0xB46E, offset: 0x16586, size: 0x8, addend: 0x0, symName: __ZNSt3__110unique_ptrINS_11__list_nodeIP5EventPvEENS_22__allocator_destructorINS_9allocatorIS5_EEEEE7releaseB8ue170006Ev, symObjAddr: 0x2FE0, symBinAddr: 0x100005A4C, symSize: 0x44 }
  - { offsetInCU: 0xB4A1, offset: 0x165B9, size: 0x8, addend: 0x0, symName: __ZNSt3__110unique_ptrINS_11__list_nodeIP5EventPvEENS_22__allocator_destructorINS_9allocatorIS5_EEEEED1B8ue170006Ev, symObjAddr: 0x3024, symBinAddr: 0x100005A90, symSize: 0x2C }
  - { offsetInCU: 0xB4CA, offset: 0x165E2, size: 0x8, addend: 0x0, symName: __ZNSt3__116allocator_traitsINS_9allocatorINS_11__list_nodeIP5EventPvEEEEE8allocateB8ue170006ERS7_m, symObjAddr: 0x3050, symBinAddr: 0x100005ABC, symSize: 0x2C }
  - { offsetInCU: 0xB4FD, offset: 0x16615, size: 0x8, addend: 0x0, symName: __ZNSt3__122__allocator_destructorINS_9allocatorINS_11__list_nodeIP5EventPvEEEEEC1B8ue170006ERS7_m, symObjAddr: 0x307C, symBinAddr: 0x100005AE8, symSize: 0x3C }
  - { offsetInCU: 0xB547, offset: 0x1665F, size: 0x8, addend: 0x0, symName: __ZNSt3__110unique_ptrINS_11__list_nodeIP5EventPvEENS_22__allocator_destructorINS_9allocatorIS5_EEEEEC1B8ue170006ILb1EvEEPS5_NS_16__dependent_typeINS_27__unique_ptr_deleter_sfinaeIS9_EEXT_EE20__good_rval_ref_typeE, symObjAddr: 0x30B8, symBinAddr: 0x100005B24, symSize: 0x3C }
  - { offsetInCU: 0xB597, offset: 0x166AF, size: 0x8, addend: 0x0, symName: __ZNSt3__19allocatorINS_11__list_nodeIP5EventPvEEE8allocateB8ue170006Em, symObjAddr: 0x30F4, symBinAddr: 0x100005B60, symSize: 0x8C }
  - { offsetInCU: 0xB5D3, offset: 0x166EB, size: 0x8, addend: 0x0, symName: __ZNSt3__116allocator_traitsINS_9allocatorINS_11__list_nodeIP5EventPvEEEEE8max_sizeB8ue170006IS7_vEEmRKS7_, symObjAddr: 0x3180, symBinAddr: 0x100005BEC, symSize: 0x24 }
  - { offsetInCU: 0xB601, offset: 0x16719, size: 0x8, addend: 0x0, symName: __ZNKSt3__19allocatorINS_11__list_nodeIP5EventPvEEE8max_sizeB8ue170006Ev, symObjAddr: 0x3200, symBinAddr: 0x100005C6C, symSize: 0x18 }
  - { offsetInCU: 0xB626, offset: 0x1673E, size: 0x8, addend: 0x0, symName: __ZNSt3__122__allocator_destructorINS_9allocatorINS_11__list_nodeIP5EventPvEEEEEC2B8ue170006ERS7_m, symObjAddr: 0x323C, symBinAddr: 0x100005CA8, symSize: 0x2C }
  - { offsetInCU: 0xB66B, offset: 0x16783, size: 0x8, addend: 0x0, symName: __ZNSt3__110unique_ptrINS_11__list_nodeIP5EventPvEENS_22__allocator_destructorINS_9allocatorIS5_EEEEEC2B8ue170006ILb1EvEEPS5_NS_16__dependent_typeINS_27__unique_ptr_deleter_sfinaeIS9_EEXT_EE20__good_rval_ref_typeE, symObjAddr: 0x3268, symBinAddr: 0x100005CD4, symSize: 0x5C }
  - { offsetInCU: 0xB6BB, offset: 0x167D3, size: 0x8, addend: 0x0, symName: __ZNSt3__117__compressed_pairIPNS_11__list_nodeIP5EventPvEENS_22__allocator_destructorINS_9allocatorIS5_EEEEEC1B8ue170006IRS6_SA_EEOT_OT0_, symObjAddr: 0x32C4, symBinAddr: 0x100005D30, symSize: 0x3C }
  - { offsetInCU: 0xB712, offset: 0x1682A, size: 0x8, addend: 0x0, symName: __ZNSt3__117__compressed_pairIPNS_11__list_nodeIP5EventPvEENS_22__allocator_destructorINS_9allocatorIS5_EEEEEC2B8ue170006IRS6_SA_EEOT_OT0_, symObjAddr: 0x3300, symBinAddr: 0x100005D6C, symSize: 0x48 }
  - { offsetInCU: 0xB769, offset: 0x16881, size: 0x8, addend: 0x0, symName: __ZNSt3__122__compressed_pair_elemIPNS_11__list_nodeIP5EventPvEELi0ELb0EEC2B8ue170006IRS6_vEEOT_, symObjAddr: 0x3348, symBinAddr: 0x100005DB4, symSize: 0x24 }
  - { offsetInCU: 0xB7AA, offset: 0x168C2, size: 0x8, addend: 0x0, symName: __ZNSt3__122__compressed_pair_elemINS_22__allocator_destructorINS_9allocatorINS_11__list_nodeIP5EventPvEEEEEELi1ELb0EEC2B8ue170006IS9_vEEOT_, symObjAddr: 0x336C, symBinAddr: 0x100005DD8, symSize: 0x24 }
  - { offsetInCU: 0xB7EB, offset: 0x16903, size: 0x8, addend: 0x0, symName: __ZNSt3__19allocatorINS_11__list_nodeIP5EventPvEEE9constructB8ue170006IS3_JRKS3_EEEvPT_DpOT0_, symObjAddr: 0x3390, symBinAddr: 0x100005DFC, symSize: 0x28 }
  - { offsetInCU: 0xB840, offset: 0x16958, size: 0x8, addend: 0x0, symName: __ZNKSt3__117__compressed_pairIPNS_11__list_nodeIP5EventPvEENS_22__allocator_destructorINS_9allocatorIS5_EEEEE5firstB8ue170006Ev, symObjAddr: 0x33B8, symBinAddr: 0x100005E24, symSize: 0x24 }
  - { offsetInCU: 0xB864, offset: 0x1697C, size: 0x8, addend: 0x0, symName: __ZNKSt3__122__compressed_pair_elemIPNS_11__list_nodeIP5EventPvEELi0ELb0EE5__getB8ue170006Ev, symObjAddr: 0x33DC, symBinAddr: 0x100005E48, symSize: 0x14 }
  - { offsetInCU: 0xB889, offset: 0x169A1, size: 0x8, addend: 0x0, symName: __ZNSt3__117__compressed_pairIPNS_11__list_nodeIP5EventPvEENS_22__allocator_destructorINS_9allocatorIS5_EEEEE5firstB8ue170006Ev, symObjAddr: 0x33F0, symBinAddr: 0x100005E5C, symSize: 0x24 }
  - { offsetInCU: 0xB8AD, offset: 0x169C5, size: 0x8, addend: 0x0, symName: __ZNSt3__122__compressed_pair_elemIPNS_11__list_nodeIP5EventPvEELi0ELb0EE5__getB8ue170006Ev, symObjAddr: 0x3414, symBinAddr: 0x100005E80, symSize: 0x14 }
  - { offsetInCU: 0xB8D2, offset: 0x169EA, size: 0x8, addend: 0x0, symName: __ZNSt3__110unique_ptrINS_11__list_nodeIP5EventPvEENS_22__allocator_destructorINS_9allocatorIS5_EEEEED2B8ue170006Ev, symObjAddr: 0x3428, symBinAddr: 0x100005E94, symSize: 0x30 }
  - { offsetInCU: 0xB8FB, offset: 0x16A13, size: 0x8, addend: 0x0, symName: __ZNSt3__110unique_ptrINS_11__list_nodeIP5EventPvEENS_22__allocator_destructorINS_9allocatorIS5_EEEEE5resetB8ue170006EPS5_, symObjAddr: 0x3458, symBinAddr: 0x100005EC4, symSize: 0x78 }
  - { offsetInCU: 0xB93D, offset: 0x16A55, size: 0x8, addend: 0x0, symName: __ZNSt3__117__compressed_pairIPNS_11__list_nodeIP5EventPvEENS_22__allocator_destructorINS_9allocatorIS5_EEEEE6secondB8ue170006Ev, symObjAddr: 0x34D0, symBinAddr: 0x100005F3C, symSize: 0x28 }
  - { offsetInCU: 0xB961, offset: 0x16A79, size: 0x8, addend: 0x0, symName: __ZNSt3__122__allocator_destructorINS_9allocatorINS_11__list_nodeIP5EventPvEEEEEclB8ue170006EPS6_, symObjAddr: 0x34F8, symBinAddr: 0x100005F64, symSize: 0x34 }
  - { offsetInCU: 0xB993, offset: 0x16AAB, size: 0x8, addend: 0x0, symName: __ZNSt3__122__compressed_pair_elemINS_22__allocator_destructorINS_9allocatorINS_11__list_nodeIP5EventPvEEEEEELi1ELb0EE5__getB8ue170006Ev, symObjAddr: 0x352C, symBinAddr: 0x100005F98, symSize: 0x14 }
  - { offsetInCU: 0xB9B8, offset: 0x16AD0, size: 0x8, addend: 0x0, symName: __ZNSt3__14listIP7ProcessNS_9allocatorIS2_EEE15__allocate_nodeB8ue170006ERNS3_INS_11__list_nodeIS2_PvEEEE, symObjAddr: 0x3540, symBinAddr: 0x100005FAC, symSize: 0x70 }
  - { offsetInCU: 0xB9FA, offset: 0x16B12, size: 0x8, addend: 0x0, symName: __ZNSt3__116allocator_traitsINS_9allocatorINS_11__list_nodeIP7ProcessPvEEEEE9constructB8ue170006IS4_JRKS4_EvEEvRS7_PT_DpOT0_, symObjAddr: 0x35B0, symBinAddr: 0x10000601C, symSize: 0x34 }
  - { offsetInCU: 0xBA51, offset: 0x16B69, size: 0x8, addend: 0x0, symName: __ZNKSt3__110unique_ptrINS_11__list_nodeIP7ProcessPvEENS_22__allocator_destructorINS_9allocatorIS5_EEEEEptB8ue170006Ev, symObjAddr: 0x35E4, symBinAddr: 0x100006050, symSize: 0x28 }
  - { offsetInCU: 0xBA75, offset: 0x16B8D, size: 0x8, addend: 0x0, symName: __ZNSt3__14listIP7ProcessNS_9allocatorIS2_EEE20__link_nodes_at_backEPNS_16__list_node_baseIS2_PvEES9_, symObjAddr: 0x360C, symBinAddr: 0x100006078, symSize: 0x60 }
  - { offsetInCU: 0xBABA, offset: 0x16BD2, size: 0x8, addend: 0x0, symName: __ZNKSt3__110unique_ptrINS_11__list_nodeIP7ProcessPvEENS_22__allocator_destructorINS_9allocatorIS5_EEEEE3getB8ue170006Ev, symObjAddr: 0x366C, symBinAddr: 0x1000060D8, symSize: 0x28 }
  - { offsetInCU: 0xBADE, offset: 0x16BF6, size: 0x8, addend: 0x0, symName: __ZNSt3__111__list_nodeIP7ProcessPvE9__as_linkB8ue170006Ev, symObjAddr: 0x3694, symBinAddr: 0x100006100, symSize: 0x24 }
  - { offsetInCU: 0xBB02, offset: 0x16C1A, size: 0x8, addend: 0x0, symName: __ZNSt3__110unique_ptrINS_11__list_nodeIP7ProcessPvEENS_22__allocator_destructorINS_9allocatorIS5_EEEEE7releaseB8ue170006Ev, symObjAddr: 0x36B8, symBinAddr: 0x100006124, symSize: 0x44 }
  - { offsetInCU: 0xBB35, offset: 0x16C4D, size: 0x8, addend: 0x0, symName: __ZNSt3__110unique_ptrINS_11__list_nodeIP7ProcessPvEENS_22__allocator_destructorINS_9allocatorIS5_EEEEED1B8ue170006Ev, symObjAddr: 0x36FC, symBinAddr: 0x100006168, symSize: 0x2C }
  - { offsetInCU: 0xBB5E, offset: 0x16C76, size: 0x8, addend: 0x0, symName: __ZNSt3__116allocator_traitsINS_9allocatorINS_11__list_nodeIP7ProcessPvEEEEE8allocateB8ue170006ERS7_m, symObjAddr: 0x3728, symBinAddr: 0x100006194, symSize: 0x2C }
  - { offsetInCU: 0xBB91, offset: 0x16CA9, size: 0x8, addend: 0x0, symName: __ZNSt3__122__allocator_destructorINS_9allocatorINS_11__list_nodeIP7ProcessPvEEEEEC1B8ue170006ERS7_m, symObjAddr: 0x3754, symBinAddr: 0x1000061C0, symSize: 0x3C }
  - { offsetInCU: 0xBBDB, offset: 0x16CF3, size: 0x8, addend: 0x0, symName: __ZNSt3__110unique_ptrINS_11__list_nodeIP7ProcessPvEENS_22__allocator_destructorINS_9allocatorIS5_EEEEEC1B8ue170006ILb1EvEEPS5_NS_16__dependent_typeINS_27__unique_ptr_deleter_sfinaeIS9_EEXT_EE20__good_rval_ref_typeE, symObjAddr: 0x3790, symBinAddr: 0x1000061FC, symSize: 0x3C }
  - { offsetInCU: 0xBC2B, offset: 0x16D43, size: 0x8, addend: 0x0, symName: __ZNSt3__19allocatorINS_11__list_nodeIP7ProcessPvEEE8allocateB8ue170006Em, symObjAddr: 0x37CC, symBinAddr: 0x100006238, symSize: 0x8C }
  - { offsetInCU: 0xBC67, offset: 0x16D7F, size: 0x8, addend: 0x0, symName: __ZNSt3__116allocator_traitsINS_9allocatorINS_11__list_nodeIP7ProcessPvEEEEE8max_sizeB8ue170006IS7_vEEmRKS7_, symObjAddr: 0x3858, symBinAddr: 0x1000062C4, symSize: 0x24 }
  - { offsetInCU: 0xBC95, offset: 0x16DAD, size: 0x8, addend: 0x0, symName: __ZNKSt3__19allocatorINS_11__list_nodeIP7ProcessPvEEE8max_sizeB8ue170006Ev, symObjAddr: 0x387C, symBinAddr: 0x1000062E8, symSize: 0x18 }
  - { offsetInCU: 0xBCBA, offset: 0x16DD2, size: 0x8, addend: 0x0, symName: __ZNSt3__122__allocator_destructorINS_9allocatorINS_11__list_nodeIP7ProcessPvEEEEEC2B8ue170006ERS7_m, symObjAddr: 0x3894, symBinAddr: 0x100006300, symSize: 0x2C }
  - { offsetInCU: 0xBCFF, offset: 0x16E17, size: 0x8, addend: 0x0, symName: __ZNSt3__110unique_ptrINS_11__list_nodeIP7ProcessPvEENS_22__allocator_destructorINS_9allocatorIS5_EEEEEC2B8ue170006ILb1EvEEPS5_NS_16__dependent_typeINS_27__unique_ptr_deleter_sfinaeIS9_EEXT_EE20__good_rval_ref_typeE, symObjAddr: 0x38C0, symBinAddr: 0x10000632C, symSize: 0x5C }
  - { offsetInCU: 0xBD4F, offset: 0x16E67, size: 0x8, addend: 0x0, symName: __ZNSt3__117__compressed_pairIPNS_11__list_nodeIP7ProcessPvEENS_22__allocator_destructorINS_9allocatorIS5_EEEEEC1B8ue170006IRS6_SA_EEOT_OT0_, symObjAddr: 0x391C, symBinAddr: 0x100006388, symSize: 0x3C }
  - { offsetInCU: 0xBDA6, offset: 0x16EBE, size: 0x8, addend: 0x0, symName: __ZNSt3__117__compressed_pairIPNS_11__list_nodeIP7ProcessPvEENS_22__allocator_destructorINS_9allocatorIS5_EEEEEC2B8ue170006IRS6_SA_EEOT_OT0_, symObjAddr: 0x3958, symBinAddr: 0x1000063C4, symSize: 0x48 }
  - { offsetInCU: 0xBDFD, offset: 0x16F15, size: 0x8, addend: 0x0, symName: __ZNSt3__122__compressed_pair_elemIPNS_11__list_nodeIP7ProcessPvEELi0ELb0EEC2B8ue170006IRS6_vEEOT_, symObjAddr: 0x39A0, symBinAddr: 0x10000640C, symSize: 0x24 }
  - { offsetInCU: 0xBE3E, offset: 0x16F56, size: 0x8, addend: 0x0, symName: __ZNSt3__122__compressed_pair_elemINS_22__allocator_destructorINS_9allocatorINS_11__list_nodeIP7ProcessPvEEEEEELi1ELb0EEC2B8ue170006IS9_vEEOT_, symObjAddr: 0x39C4, symBinAddr: 0x100006430, symSize: 0x24 }
  - { offsetInCU: 0xBE7F, offset: 0x16F97, size: 0x8, addend: 0x0, symName: __ZNSt3__19allocatorINS_11__list_nodeIP7ProcessPvEEE9constructB8ue170006IS3_JRKS3_EEEvPT_DpOT0_, symObjAddr: 0x39E8, symBinAddr: 0x100006454, symSize: 0x28 }
  - { offsetInCU: 0xBED4, offset: 0x16FEC, size: 0x8, addend: 0x0, symName: __ZNKSt3__117__compressed_pairIPNS_11__list_nodeIP7ProcessPvEENS_22__allocator_destructorINS_9allocatorIS5_EEEEE5firstB8ue170006Ev, symObjAddr: 0x3A10, symBinAddr: 0x10000647C, symSize: 0x24 }
  - { offsetInCU: 0xBEF8, offset: 0x17010, size: 0x8, addend: 0x0, symName: __ZNKSt3__122__compressed_pair_elemIPNS_11__list_nodeIP7ProcessPvEELi0ELb0EE5__getB8ue170006Ev, symObjAddr: 0x3A34, symBinAddr: 0x1000064A0, symSize: 0x14 }
  - { offsetInCU: 0xBF1D, offset: 0x17035, size: 0x8, addend: 0x0, symName: __ZNSt3__117__compressed_pairIPNS_11__list_nodeIP7ProcessPvEENS_22__allocator_destructorINS_9allocatorIS5_EEEEE5firstB8ue170006Ev, symObjAddr: 0x3A48, symBinAddr: 0x1000064B4, symSize: 0x24 }
  - { offsetInCU: 0xBF41, offset: 0x17059, size: 0x8, addend: 0x0, symName: __ZNSt3__122__compressed_pair_elemIPNS_11__list_nodeIP7ProcessPvEELi0ELb0EE5__getB8ue170006Ev, symObjAddr: 0x3A6C, symBinAddr: 0x1000064D8, symSize: 0x14 }
  - { offsetInCU: 0xBF66, offset: 0x1707E, size: 0x8, addend: 0x0, symName: __ZNSt3__110unique_ptrINS_11__list_nodeIP7ProcessPvEENS_22__allocator_destructorINS_9allocatorIS5_EEEEED2B8ue170006Ev, symObjAddr: 0x3A80, symBinAddr: 0x1000064EC, symSize: 0x30 }
  - { offsetInCU: 0xBF8F, offset: 0x170A7, size: 0x8, addend: 0x0, symName: __ZNSt3__110unique_ptrINS_11__list_nodeIP7ProcessPvEENS_22__allocator_destructorINS_9allocatorIS5_EEEEE5resetB8ue170006EPS5_, symObjAddr: 0x3AB0, symBinAddr: 0x10000651C, symSize: 0x78 }
  - { offsetInCU: 0xBFD1, offset: 0x170E9, size: 0x8, addend: 0x0, symName: __ZNSt3__117__compressed_pairIPNS_11__list_nodeIP7ProcessPvEENS_22__allocator_destructorINS_9allocatorIS5_EEEEE6secondB8ue170006Ev, symObjAddr: 0x3B28, symBinAddr: 0x100006594, symSize: 0x28 }
  - { offsetInCU: 0xBFF5, offset: 0x1710D, size: 0x8, addend: 0x0, symName: __ZNSt3__122__allocator_destructorINS_9allocatorINS_11__list_nodeIP7ProcessPvEEEEEclB8ue170006EPS6_, symObjAddr: 0x3B50, symBinAddr: 0x1000065BC, symSize: 0x34 }
  - { offsetInCU: 0xC027, offset: 0x1713F, size: 0x8, addend: 0x0, symName: __ZNSt3__122__compressed_pair_elemINS_22__allocator_destructorINS_9allocatorINS_11__list_nodeIP7ProcessPvEEEEEELi1ELb0EE5__getB8ue170006Ev, symObjAddr: 0x3B84, symBinAddr: 0x1000065F0, symSize: 0x14 }
  - { offsetInCU: 0xC04C, offset: 0x17164, size: 0x8, addend: 0x0, symName: __ZNSt3__14listIP5EventNS_9allocatorIS2_EEE21__link_nodes_at_frontEPNS_16__list_node_baseIS2_PvEES9_, symObjAddr: 0x3B98, symBinAddr: 0x100006604, symSize: 0x60 }
  - { offsetInCU: 0xC091, offset: 0x171A9, size: 0x8, addend: 0x0, symName: __ZNSt3__110__list_impIP5EventNS_9allocatorIS2_EEE5beginB8ue170006Ev, symObjAddr: 0x3BF8, symBinAddr: 0x100006664, symSize: 0x30 }
  - { offsetInCU: 0xC0B5, offset: 0x171CD, size: 0x8, addend: 0x0, symName: __ZNSt3__115__list_iteratorIP5EventPvEC1B8ue170006EPNS_16__list_node_baseIS2_S3_EE, symObjAddr: 0x3C28, symBinAddr: 0x100006694, symSize: 0x34 }
  - { offsetInCU: 0xC0ED, offset: 0x17205, size: 0x8, addend: 0x0, symName: __ZNSt3__115__list_iteratorIP5EventPvEC2B8ue170006EPNS_16__list_node_baseIS2_S3_EE, symObjAddr: 0x3C5C, symBinAddr: 0x1000066C8, symSize: 0x20 }
  - { offsetInCU: 0xC125, offset: 0x1723D, size: 0x8, addend: 0x0, symName: __ZNSt3__110__list_impIP5EventNS_9allocatorIS2_EEE3endB8ue170006Ev, symObjAddr: 0x3C7C, symBinAddr: 0x1000066E8, symSize: 0x34 }
  - { offsetInCU: 0xC149, offset: 0x17261, size: 0x8, addend: 0x0, symName: __ZNSt3__14listIP5EventNS_9allocatorIS2_EEE12__link_nodesEPNS_16__list_node_baseIS2_PvEES9_S9_, symObjAddr: 0x3CE0, symBinAddr: 0x10000674C, symSize: 0x50 }
  - { offsetInCU: 0xC18D, offset: 0x172A5, size: 0x8, addend: 0x0, symName: __ZNSt3__121__list_const_iteratorIP5EventPvEC2B8ue170006ERKNS_15__list_iteratorIS2_S3_EE, symObjAddr: 0x3D30, symBinAddr: 0x10000679C, symSize: 0x24 }
  - { offsetInCU: 0xC1C5, offset: 0x172DD, size: 0x8, addend: 0x0, symName: __ZNSt3__18ios_base9precisionB8ue170006El, symObjAddr: 0x3D54, symBinAddr: 0x1000067C0, symSize: 0x2C }
  - { offsetInCU: 0xC22D, offset: 0x17345, size: 0x8, addend: 0x0, symName: __ZNSt3__112basic_stringIcNS_11char_traitsIcEENS_9allocatorIcEEEC2B8ue170006Ev, symObjAddr: 0x48DC, symBinAddr: 0x1000067EC, symSize: 0x3C }
  - { offsetInCU: 0xC256, offset: 0x1736E, size: 0x8, addend: 0x0, symName: __ZNSt3__112basic_stringIcNS_11char_traitsIcEENS_9allocatorIcEEE14__default_initB8ue170006Ev, symObjAddr: 0x4918, symBinAddr: 0x100006828, symSize: 0xB0 }
  - { offsetInCU: 0xC2A7, offset: 0x173BF, size: 0x8, addend: 0x0, symName: __ZNSt3__117__compressed_pairINS_12basic_stringIcNS_11char_traitsIcEENS_9allocatorIcEEE5__repES5_E5firstB8ue170006Ev, symObjAddr: 0x49C8, symBinAddr: 0x1000068D8, symSize: 0x24 }
  - { offsetInCU: 0xC2CB, offset: 0x173E3, size: 0x8, addend: 0x0, symName: __ZNSt3__112basic_stringIcNS_11char_traitsIcEENS_9allocatorIcEEE11__recommendB8ue170006Em, symObjAddr: 0x49EC, symBinAddr: 0x1000068FC, symSize: 0x9C }
  - { offsetInCU: 0xC2FE, offset: 0x17416, size: 0x8, addend: 0x0, symName: __ZNSt3__116allocator_traitsINS_9allocatorIcEEE8allocateB8ue170006ERS2_m, symObjAddr: 0x4A88, symBinAddr: 0x100006998, symSize: 0x2C }
  - { offsetInCU: 0xC331, offset: 0x17449, size: 0x8, addend: 0x0, symName: __ZNSt3__112basic_stringIcNS_11char_traitsIcEENS_9allocatorIcEEE7__allocB8ue170006Ev, symObjAddr: 0x4AB4, symBinAddr: 0x1000069C4, symSize: 0x24 }
  - { offsetInCU: 0xC355, offset: 0x1746D, size: 0x8, addend: 0x0, symName: __ZNSt3__112basic_stringIcNS_11char_traitsIcEENS_9allocatorIcEEE16__begin_lifetimeB8ue170006EPcm, symObjAddr: 0x4AD8, symBinAddr: 0x1000069E8, symSize: 0x14 }
  - { offsetInCU: 0xC388, offset: 0x174A0, size: 0x8, addend: 0x0, symName: __ZNSt3__112basic_stringIcNS_11char_traitsIcEENS_9allocatorIcEEE18__set_long_pointerB8ue170006EPc, symObjAddr: 0x4AEC, symBinAddr: 0x1000069FC, symSize: 0x38 }
  - { offsetInCU: 0xC3BB, offset: 0x174D3, size: 0x8, addend: 0x0, symName: __ZNSt3__112basic_stringIcNS_11char_traitsIcEENS_9allocatorIcEEE14__set_long_capB8ue170006Em, symObjAddr: 0x4B24, symBinAddr: 0x100006A34, symSize: 0x70 }
  - { offsetInCU: 0xC3EE, offset: 0x17506, size: 0x8, addend: 0x0, symName: __ZNSt3__112basic_stringIcNS_11char_traitsIcEENS_9allocatorIcEEE15__set_long_sizeB8ue170006Em, symObjAddr: 0x4B94, symBinAddr: 0x100006AA4, symSize: 0x38 }
  - { offsetInCU: 0xC421, offset: 0x17539, size: 0x8, addend: 0x0, symName: __ZNSt3__122__compressed_pair_elemINS_12basic_stringIcNS_11char_traitsIcEENS_9allocatorIcEEE5__repELi0ELb0EE5__getB8ue170006Ev, symObjAddr: 0x4BCC, symBinAddr: 0x100006ADC, symSize: 0x14 }
  - { offsetInCU: 0xC446, offset: 0x1755E, size: 0x8, addend: 0x0, symName: __ZNSt3__112basic_stringIcNS_11char_traitsIcEENS_9allocatorIcEEE10__align_itB8ue170006ILm16EEEmm, symObjAddr: 0x4BE0, symBinAddr: 0x100006AF0, symSize: 0x1C }
  - { offsetInCU: 0xC474, offset: 0x1758C, size: 0x8, addend: 0x0, symName: __ZNSt3__19allocatorIcE8allocateB8ue170006Em, symObjAddr: 0x4BFC, symBinAddr: 0x100006B0C, symSize: 0x84 }
  - { offsetInCU: 0xC4B0, offset: 0x175C8, size: 0x8, addend: 0x0, symName: __ZNSt3__116allocator_traitsINS_9allocatorIcEEE8max_sizeB8ue170006IS2_vEEmRKS2_, symObjAddr: 0x4C80, symBinAddr: 0x100006B90, symSize: 0x24 }
  - { offsetInCU: 0xC4DE, offset: 0x175F6, size: 0x8, addend: 0x0, symName: __ZNKSt3__19allocatorIcE8max_sizeB8ue170006Ev, symObjAddr: 0x4CA4, symBinAddr: 0x100006BB4, symSize: 0x14 }
  - { offsetInCU: 0xC503, offset: 0x1761B, size: 0x8, addend: 0x0, symName: __ZNSt3__117__compressed_pairINS_12basic_stringIcNS_11char_traitsIcEENS_9allocatorIcEEE5__repES5_E6secondB8ue170006Ev, symObjAddr: 0x4CB8, symBinAddr: 0x100006BC8, symSize: 0x24 }
  - { offsetInCU: 0xC527, offset: 0x1763F, size: 0x8, addend: 0x0, symName: __ZNSt3__122__compressed_pair_elemINS_9allocatorIcEELi1ELb1EE5__getB8ue170006Ev, symObjAddr: 0x4CDC, symBinAddr: 0x100006BEC, symSize: 0x14 }
  - { offsetInCU: 0xC5D9, offset: 0x176F1, size: 0x8, addend: 0x0, symName: __ZNKSt3__113basic_istreamIcNS_11char_traitsIcEEE6sentrycvbB8ue170006Ev, symObjAddr: 0x4CF0, symBinAddr: 0x100006C00, symSize: 0x1C }
  - { offsetInCU: 0xC5FE, offset: 0x17716, size: 0x8, addend: 0x0, symName: __ZNSt3__112basic_stringIcNS_11char_traitsIcEENS_9allocatorIcEEE5clearB8ue170006Ev, symObjAddr: 0x4D0C, symBinAddr: 0x100006C1C, symSize: 0x78 }
  - { offsetInCU: 0xC625, offset: 0x1773D, size: 0x8, addend: 0x0, symName: __ZNKSt3__112basic_stringIcNS_11char_traitsIcEENS_9allocatorIcEEE8max_sizeB8ue170006Ev, symObjAddr: 0x4D84, symBinAddr: 0x100006C94, symSize: 0xAC }
  - { offsetInCU: 0xC676, offset: 0x1778E, size: 0x8, addend: 0x0, symName: __ZNSt3__114numeric_limitsIlE3maxB8ue170006Ev, symObjAddr: 0x4E30, symBinAddr: 0x100006D40, symSize: 0x14 }
  - { offsetInCU: 0xC68A, offset: 0x177A2, size: 0x8, addend: 0x0, symName: __ZNSt3__115basic_streambufIcNS_11char_traitsIcEEE5sgetcB8ue170006Ev, symObjAddr: 0x4E44, symBinAddr: 0x100006D54, symSize: 0x70 }
  - { offsetInCU: 0xC6AE, offset: 0x177C6, size: 0x8, addend: 0x0, symName: __ZNSt3__111char_traitsIcE12to_char_typeB8ue170006Ei, symObjAddr: 0x4EB4, symBinAddr: 0x100006DC4, symSize: 0x18 }
  - { offsetInCU: 0xC6D1, offset: 0x177E9, size: 0x8, addend: 0x0, symName: __ZNKSt3__15ctypeIcE2isB8ue170006Ejc, symObjAddr: 0x4ECC, symBinAddr: 0x100006DDC, symSize: 0x7C }
  - { offsetInCU: 0xC713, offset: 0x1782B, size: 0x8, addend: 0x0, symName: __ZNSt3__115basic_streambufIcNS_11char_traitsIcEEE6sbumpcB8ue170006Ev, symObjAddr: 0x4F48, symBinAddr: 0x100006E58, symSize: 0x78 }
  - { offsetInCU: 0xC737, offset: 0x1784F, size: 0x8, addend: 0x0, symName: __ZNSt3__18ios_base18__setstate_nothrowB8ue170006Ej, symObjAddr: 0x4FC0, symBinAddr: 0x100006ED0, symSize: 0x64 }
  - { offsetInCU: 0xC76B, offset: 0x17883, size: 0x8, addend: 0x0, symName: __ZNKSt3__19basic_iosIcNS_11char_traitsIcEEE10exceptionsB8ue170006Ev, symObjAddr: 0x5024, symBinAddr: 0x100006F34, symSize: 0x24 }
  - { offsetInCU: 0xC78F, offset: 0x178A7, size: 0x8, addend: 0x0, symName: __ZNSt3__111char_traitsIcE6assignB8ue170006ERcRKc, symObjAddr: 0x5048, symBinAddr: 0x100006F58, symSize: 0x24 }
  - { offsetInCU: 0xC7C0, offset: 0x178D8, size: 0x8, addend: 0x0, symName: __ZNSt3__112basic_stringIcNS_11char_traitsIcEENS_9allocatorIcEEE18__get_long_pointerB8ue170006Ev, symObjAddr: 0x506C, symBinAddr: 0x100006F7C, symSize: 0x28 }
  - { offsetInCU: 0xC7E4, offset: 0x178FC, size: 0x8, addend: 0x0, symName: __ZNSt3__112basic_stringIcNS_11char_traitsIcEENS_9allocatorIcEEE19__get_short_pointerB8ue170006Ev, symObjAddr: 0x5094, symBinAddr: 0x100006FA4, symSize: 0x28 }
  - { offsetInCU: 0xC808, offset: 0x17920, size: 0x8, addend: 0x0, symName: __ZNSt3__112basic_stringIcNS_11char_traitsIcEENS_9allocatorIcEEE16__set_short_sizeB8ue170006Em, symObjAddr: 0x50BC, symBinAddr: 0x100006FCC, symSize: 0x78 }
  - { offsetInCU: 0xC83B, offset: 0x17953, size: 0x8, addend: 0x0, symName: __ZNSt3__114pointer_traitsIPcE10pointer_toB8ue170006ERc, symObjAddr: 0x5134, symBinAddr: 0x100007044, symSize: 0x14 }
  - { offsetInCU: 0xC85E, offset: 0x17976, size: 0x8, addend: 0x0, symName: __ZNKSt3__112basic_stringIcNS_11char_traitsIcEENS_9allocatorIcEEE7__allocB8ue170006Ev, symObjAddr: 0x5148, symBinAddr: 0x100007058, symSize: 0x24 }
  - { offsetInCU: 0xC882, offset: 0x1799A, size: 0x8, addend: 0x0, symName: __ZNSt3__114numeric_limitsImE3maxB8ue170006Ev, symObjAddr: 0x516C, symBinAddr: 0x10000707C, symSize: 0x14 }
  - { offsetInCU: 0xC896, offset: 0x179AE, size: 0x8, addend: 0x0, symName: __ZNKSt3__117__compressed_pairINS_12basic_stringIcNS_11char_traitsIcEENS_9allocatorIcEEE5__repES5_E6secondB8ue170006Ev, symObjAddr: 0x5180, symBinAddr: 0x100007090, symSize: 0x24 }
  - { offsetInCU: 0xC8BA, offset: 0x179D2, size: 0x8, addend: 0x0, symName: __ZNKSt3__122__compressed_pair_elemINS_9allocatorIcEELi1ELb1EE5__getB8ue170006Ev, symObjAddr: 0x51A4, symBinAddr: 0x1000070B4, symSize: 0x14 }
  - { offsetInCU: 0xC8DF, offset: 0x179F7, size: 0x8, addend: 0x0, symName: __ZNSt3__123__libcpp_numeric_limitsImLb1EE3maxB8ue170006Ev, symObjAddr: 0x51B8, symBinAddr: 0x1000070C8, symSize: 0x8 }
  - { offsetInCU: 0xC8F3, offset: 0x17A0B, size: 0x8, addend: 0x0, symName: __ZNSt3__123__libcpp_numeric_limitsIlLb1EE3maxB8ue170006Ev, symObjAddr: 0x51C0, symBinAddr: 0x1000070D0, symSize: 0x8 }
  - { offsetInCU: 0xC907, offset: 0x17A1F, size: 0x8, addend: 0x0, symName: __ZNSt3__111char_traitsIcE11to_int_typeB8ue170006Ec, symObjAddr: 0x51C8, symBinAddr: 0x1000070D8, symSize: 0x14 }
  - { offsetInCU: 0xC92A, offset: 0x17A42, size: 0x8, addend: 0x0, symName: __Z7isasciii, symObjAddr: 0x51DC, symBinAddr: 0x1000070EC, symSize: 0x24 }
  - { offsetInCU: 0xC957, offset: 0x17A6F, size: 0x8, addend: 0x0, symName: __ZNKSt3__18ios_base10exceptionsB8ue170006Ev, symObjAddr: 0x5200, symBinAddr: 0x100007110, symSize: 0x18 }
  - { offsetInCU: 0xC97E, offset: 0x17A96, size: 0x8, addend: 0x0, symName: __ZNSt3__19basic_iosIcNS_11char_traitsIcEEEC2B8ue170006Ev, symObjAddr: 0x5218, symBinAddr: 0x100007128, symSize: 0x44 }
  - { offsetInCU: 0xC9A7, offset: 0x17ABF, size: 0x8, addend: 0x0, symName: __ZNSt3__113basic_ostreamIcNS_11char_traitsIcEEEC2B8ue170006EPNS_15basic_streambufIcS2_EE, symObjAddr: 0x525C, symBinAddr: 0x10000716C, symSize: 0x60 }
  - { offsetInCU: 0xC9EA, offset: 0x17B02, size: 0x8, addend: 0x0, symName: __ZNSt3__113basic_filebufIcNS_11char_traitsIcEEE4openERKNS_12basic_stringIcS2_NS_9allocatorIcEEEEj, symObjAddr: 0x52BC, symBinAddr: 0x1000071CC, symSize: 0x44 }
  - { offsetInCU: 0xCA2D, offset: 0x17B45, size: 0x8, addend: 0x0, symName: __ZNSt3__18ios_baseC2B8ue170006Ev, symObjAddr: 0x5300, symBinAddr: 0x100007210, symSize: 0x24 }
  - { offsetInCU: 0xCA56, offset: 0x17B6E, size: 0x8, addend: 0x0, symName: __ZNSt3__19basic_iosIcNS_11char_traitsIcEEE4initB8ue170006EPNS_15basic_streambufIcS2_EE, symObjAddr: 0x5324, symBinAddr: 0x100007234, symSize: 0x44 }
  - { offsetInCU: 0xCA8C, offset: 0x17BA4, size: 0x8, addend: 0x0, symName: __ZNKSt3__112basic_stringIcNS_11char_traitsIcEENS_9allocatorIcEEE5c_strB8ue170006Ev, symObjAddr: 0x5368, symBinAddr: 0x100007278, symSize: 0x24 }
  - { offsetInCU: 0xCAB0, offset: 0x17BC8, size: 0x8, addend: 0x0, symName: __ZNKSt3__19basic_iosIcNS_11char_traitsIcEEE4failB8ue170006Ev, symObjAddr: 0x538C, symBinAddr: 0x10000729C, symSize: 0x28 }
  - { offsetInCU: 0xCAD4, offset: 0x17BEC, size: 0x8, addend: 0x0, symName: __ZNKSt3__18ios_base4failB8ue170006Ev, symObjAddr: 0x53B4, symBinAddr: 0x1000072C4, symSize: 0x28 }
...
